
./test/test.om:     file format elf32-littleriscv


Disassembly of section .rom:

00000000 <.rom>:
   0:	00020137          	lui	sp,0x20
   4:	694010ef          	jal	ra,1698 <main>
   8:	0ff00513          	li	a0,255
   c:	000306b7          	lui	a3,0x30
  10:	00a68223          	sb	a0,4(a3) # 30004 <__heap_start+0x2e004>
  14:	ff9ff06f          	j	c <outl-0xff4>

Disassembly of section .text:

00001000 <outl>:
    1000:	fd010113          	addi	sp,sp,-48 # 1ffd0 <__heap_start+0x1dfd0>
    1004:	03212023          	sw	s2,32(sp)
    1008:	01612823          	sw	s6,16(sp)
    100c:	02112623          	sw	ra,44(sp)
    1010:	02812423          	sw	s0,40(sp)
    1014:	02912223          	sw	s1,36(sp)
    1018:	01312e23          	sw	s3,28(sp)
    101c:	01412c23          	sw	s4,24(sp)
    1020:	01512a23          	sw	s5,20(sp)
    1024:	00050913          	mv	s2,a0
    1028:	00000b13          	li	s6,0
    102c:	00055663          	bgez	a0,1038 <outl+0x38>
    1030:	40a00933          	neg	s2,a0
    1034:	00100b13          	li	s6,1
    1038:	00000493          	li	s1,0
    103c:	00410a13          	addi	s4,sp,4
    1040:	00900a93          	li	s5,9
    1044:	00c0006f          	j	1050 <outl+0x50>
    1048:	00098493          	mv	s1,s3
    104c:	00050913          	mv	s2,a0
    1050:	00a00593          	li	a1,10
    1054:	00090513          	mv	a0,s2
    1058:	610000ef          	jal	ra,1668 <__modsi3>
    105c:	03050513          	addi	a0,a0,48
    1060:	00148993          	addi	s3,s1,1
    1064:	0ff57413          	andi	s0,a0,255
    1068:	013a07b3          	add	a5,s4,s3
    106c:	00090513          	mv	a0,s2
    1070:	00a00593          	li	a1,10
    1074:	fe878fa3          	sb	s0,-1(a5)
    1078:	56c000ef          	jal	ra,15e4 <__divsi3>
    107c:	fd2ac6e3          	blt	s5,s2,1048 <outl+0x48>
    1080:	000b0e63          	beqz	s6,109c <outl+0x9c>
    1084:	01010793          	addi	a5,sp,16
    1088:	013787b3          	add	a5,a5,s3
    108c:	02d00713          	li	a4,45
    1090:	fee78a23          	sb	a4,-12(a5)
    1094:	00098493          	mv	s1,s3
    1098:	02d00413          	li	s0,45
    109c:	009a07b3          	add	a5,s4,s1
    10a0:	000306b7          	lui	a3,0x30
    10a4:	00c0006f          	j	10b0 <outl+0xb0>
    10a8:	fff7c403          	lbu	s0,-1(a5)
    10ac:	00070793          	mv	a5,a4
    10b0:	00868023          	sb	s0,0(a3) # 30000 <__heap_start+0x2e000>
    10b4:	fff78713          	addi	a4,a5,-1
    10b8:	fefa18e3          	bne	s4,a5,10a8 <outl+0xa8>
    10bc:	02c12083          	lw	ra,44(sp)
    10c0:	02812403          	lw	s0,40(sp)
    10c4:	02412483          	lw	s1,36(sp)
    10c8:	02012903          	lw	s2,32(sp)
    10cc:	01c12983          	lw	s3,28(sp)
    10d0:	01812a03          	lw	s4,24(sp)
    10d4:	01412a83          	lw	s5,20(sp)
    10d8:	01012b03          	lw	s6,16(sp)
    10dc:	03010113          	addi	sp,sp,48
    10e0:	00008067          	ret

000010e4 <random>:
    10e4:	fe010113          	addi	sp,sp,-32
    10e8:	000027b7          	lui	a5,0x2
    10ec:	00912a23          	sw	s1,20(sp)
    10f0:	000024b7          	lui	s1,0x2
    10f4:	01212823          	sw	s2,16(sp)
    10f8:	01312623          	sw	s3,12(sp)
    10fc:	b844a903          	lw	s2,-1148(s1) # 1b84 <__bss_start>
    1100:	b987a983          	lw	s3,-1128(a5) # 1b98 <Q>
    1104:	00112e23          	sw	ra,28(sp)
    1108:	00090513          	mv	a0,s2
    110c:	00098593          	mv	a1,s3
    1110:	00812c23          	sw	s0,24(sp)
    1114:	554000ef          	jal	ra,1668 <__modsi3>
    1118:	000027b7          	lui	a5,0x2
    111c:	b8c7a583          	lw	a1,-1140(a5) # 1b8c <A>
    1120:	4a0000ef          	jal	ra,15c0 <__mulsi3>
    1124:	00050413          	mv	s0,a0
    1128:	00098593          	mv	a1,s3
    112c:	00090513          	mv	a0,s2
    1130:	4b4000ef          	jal	ra,15e4 <__divsi3>
    1134:	000027b7          	lui	a5,0x2
    1138:	b9c7a583          	lw	a1,-1124(a5) # 1b9c <R>
    113c:	484000ef          	jal	ra,15c0 <__mulsi3>
    1140:	40a40533          	sub	a0,s0,a0
    1144:	00055863          	bgez	a0,1154 <random+0x70>
    1148:	000027b7          	lui	a5,0x2
    114c:	b887a783          	lw	a5,-1144(a5) # 1b88 <M>
    1150:	00f50533          	add	a0,a0,a5
    1154:	01c12083          	lw	ra,28(sp)
    1158:	01812403          	lw	s0,24(sp)
    115c:	b8a4a223          	sw	a0,-1148(s1)
    1160:	01012903          	lw	s2,16(sp)
    1164:	01412483          	lw	s1,20(sp)
    1168:	00c12983          	lw	s3,12(sp)
    116c:	02010113          	addi	sp,sp,32
    1170:	00008067          	ret

00001174 <initialize>:
    1174:	000027b7          	lui	a5,0x2
    1178:	b8a7a223          	sw	a0,-1148(a5) # 1b84 <__bss_start>
    117c:	00008067          	ret

00001180 <swap>:
    1180:	000027b7          	lui	a5,0x2
    1184:	ba478793          	addi	a5,a5,-1116 # 1ba4 <a>
    1188:	00259593          	slli	a1,a1,0x2
    118c:	00f585b3          	add	a1,a1,a5
    1190:	00251513          	slli	a0,a0,0x2
    1194:	00f50533          	add	a0,a0,a5
    1198:	0005a703          	lw	a4,0(a1)
    119c:	00052783          	lw	a5,0(a0)
    11a0:	00e52023          	sw	a4,0(a0)
    11a4:	00f5a023          	sw	a5,0(a1)
    11a8:	00008067          	ret

000011ac <pd>:
    11ac:	fe010113          	addi	sp,sp,-32
    11b0:	01312623          	sw	s3,12(sp)
    11b4:	000029b7          	lui	s3,0x2
    11b8:	ba09a783          	lw	a5,-1120(s3) # 1ba0 <h>
    11bc:	00112e23          	sw	ra,28(sp)
    11c0:	00812c23          	sw	s0,24(sp)
    11c4:	00912a23          	sw	s1,20(sp)
    11c8:	01212823          	sw	s2,16(sp)
    11cc:	08f54e63          	blt	a0,a5,1268 <pd+0xbc>
    11d0:	00178413          	addi	s0,a5,1
    11d4:	00050913          	mv	s2,a0
    11d8:	00040593          	mv	a1,s0
    11dc:	00078513          	mv	a0,a5
    11e0:	3e0000ef          	jal	ra,15c0 <__mulsi3>
    11e4:	01f55793          	srli	a5,a0,0x1f
    11e8:	00a78533          	add	a0,a5,a0
    11ec:	40155513          	srai	a0,a0,0x1
    11f0:	02a91063          	bne	s2,a0,1210 <pd+0x64>
    11f4:	07c0006f          	j	1270 <pd+0xc4>
    11f8:	3c8000ef          	jal	ra,15c0 <__mulsi3>
    11fc:	01f55793          	srli	a5,a0,0x1f
    1200:	00a787b3          	add	a5,a5,a0
    1204:	4017d793          	srai	a5,a5,0x1
    1208:	03278e63          	beq	a5,s2,1244 <pd+0x98>
    120c:	00048413          	mv	s0,s1
    1210:	00140493          	addi	s1,s0,1
    1214:	00040593          	mv	a1,s0
    1218:	00048513          	mv	a0,s1
    121c:	fc895ee3          	ble	s0,s2,11f8 <pd+0x4c>
    1220:	ba89a023          	sw	s0,-1120(s3)
    1224:	00000513          	li	a0,0
    1228:	01c12083          	lw	ra,28(sp)
    122c:	01812403          	lw	s0,24(sp)
    1230:	01412483          	lw	s1,20(sp)
    1234:	01012903          	lw	s2,16(sp)
    1238:	00c12983          	lw	s3,12(sp)
    123c:	02010113          	addi	sp,sp,32
    1240:	00008067          	ret
    1244:	ba89a023          	sw	s0,-1120(s3)
    1248:	01c12083          	lw	ra,28(sp)
    124c:	01812403          	lw	s0,24(sp)
    1250:	01412483          	lw	s1,20(sp)
    1254:	01012903          	lw	s2,16(sp)
    1258:	00c12983          	lw	s3,12(sp)
    125c:	00100513          	li	a0,1
    1260:	02010113          	addi	sp,sp,32
    1264:	00008067          	ret
    1268:	00000513          	li	a0,0
    126c:	fbdff06f          	j	1228 <pd+0x7c>
    1270:	00100513          	li	a0,1
    1274:	fb5ff06f          	j	1228 <pd+0x7c>

00001278 <show>:
    1278:	fb010113          	addi	sp,sp,-80
    127c:	03712623          	sw	s7,44(sp)
    1280:	00002bb7          	lui	s7,0x2
    1284:	b90ba783          	lw	a5,-1136(s7) # 1b90 <now>
    1288:	04112623          	sw	ra,76(sp)
    128c:	04812423          	sw	s0,72(sp)
    1290:	04912223          	sw	s1,68(sp)
    1294:	05212023          	sw	s2,64(sp)
    1298:	03312e23          	sw	s3,60(sp)
    129c:	03412c23          	sw	s4,56(sp)
    12a0:	03512a23          	sw	s5,52(sp)
    12a4:	03612823          	sw	s6,48(sp)
    12a8:	03812423          	sw	s8,40(sp)
    12ac:	03912223          	sw	s9,36(sp)
    12b0:	03a12023          	sw	s10,32(sp)
    12b4:	01b12e23          	sw	s11,28(sp)
    12b8:	0af05c63          	blez	a5,1370 <show+0xf8>
    12bc:	00002ab7          	lui	s5,0x2
    12c0:	ba4a8a93          	addi	s5,s5,-1116 # 1ba4 <a>
    12c4:	00000b13          	li	s6,0
    12c8:	00410913          	addi	s2,sp,4
    12cc:	00900a13          	li	s4,9
    12d0:	000309b7          	lui	s3,0x30
    12d4:	02000c13          	li	s8,32
    12d8:	000aad83          	lw	s11,0(s5)
    12dc:	00000d13          	li	s10,0
    12e0:	0c0dcc63          	bltz	s11,13b8 <show+0x140>
    12e4:	00000493          	li	s1,0
    12e8:	00c0006f          	j	12f4 <show+0x7c>
    12ec:	000c8493          	mv	s1,s9
    12f0:	00050d93          	mv	s11,a0
    12f4:	00a00593          	li	a1,10
    12f8:	000d8513          	mv	a0,s11
    12fc:	36c000ef          	jal	ra,1668 <__modsi3>
    1300:	03050513          	addi	a0,a0,48
    1304:	00148c93          	addi	s9,s1,1
    1308:	0ff57413          	andi	s0,a0,255
    130c:	01990733          	add	a4,s2,s9
    1310:	000d8513          	mv	a0,s11
    1314:	00a00593          	li	a1,10
    1318:	fe870fa3          	sb	s0,-1(a4)
    131c:	2c8000ef          	jal	ra,15e4 <__divsi3>
    1320:	fdba46e3          	blt	s4,s11,12ec <show+0x74>
    1324:	000d0e63          	beqz	s10,1340 <show+0xc8>
    1328:	01010793          	addi	a5,sp,16
    132c:	01978733          	add	a4,a5,s9
    1330:	02d00793          	li	a5,45
    1334:	fef70a23          	sb	a5,-12(a4)
    1338:	000c8493          	mv	s1,s9
    133c:	02d00413          	li	s0,45
    1340:	009907b3          	add	a5,s2,s1
    1344:	00c0006f          	j	1350 <show+0xd8>
    1348:	fff7c403          	lbu	s0,-1(a5)
    134c:	00070793          	mv	a5,a4
    1350:	00898023          	sb	s0,0(s3) # 30000 <__heap_start+0x2e000>
    1354:	fff78713          	addi	a4,a5,-1
    1358:	fef918e3          	bne	s2,a5,1348 <show+0xd0>
    135c:	01898023          	sb	s8,0(s3)
    1360:	b90ba783          	lw	a5,-1136(s7)
    1364:	001b0b13          	addi	s6,s6,1
    1368:	004a8a93          	addi	s5,s5,4
    136c:	f6fb46e3          	blt	s6,a5,12d8 <show+0x60>
    1370:	000307b7          	lui	a5,0x30
    1374:	00a00713          	li	a4,10
    1378:	00e78023          	sb	a4,0(a5) # 30000 <__heap_start+0x2e000>
    137c:	04c12083          	lw	ra,76(sp)
    1380:	04812403          	lw	s0,72(sp)
    1384:	04412483          	lw	s1,68(sp)
    1388:	04012903          	lw	s2,64(sp)
    138c:	03c12983          	lw	s3,60(sp)
    1390:	03812a03          	lw	s4,56(sp)
    1394:	03412a83          	lw	s5,52(sp)
    1398:	03012b03          	lw	s6,48(sp)
    139c:	02c12b83          	lw	s7,44(sp)
    13a0:	02812c03          	lw	s8,40(sp)
    13a4:	02412c83          	lw	s9,36(sp)
    13a8:	02012d03          	lw	s10,32(sp)
    13ac:	01c12d83          	lw	s11,28(sp)
    13b0:	05010113          	addi	sp,sp,80
    13b4:	00008067          	ret
    13b8:	41b00db3          	neg	s11,s11
    13bc:	00100d13          	li	s10,1
    13c0:	f25ff06f          	j	12e4 <show+0x6c>

000013c4 <win>:
    13c4:	000027b7          	lui	a5,0x2
    13c8:	b907a883          	lw	a7,-1136(a5) # 1b90 <now>
    13cc:	000027b7          	lui	a5,0x2
    13d0:	ba07a783          	lw	a5,-1120(a5) # 1ba0 <h>
    13d4:	00f88663          	beq	a7,a5,13e0 <win+0x1c>
    13d8:	00000513          	li	a0,0
    13dc:	00008067          	ret
    13e0:	e7010113          	addi	sp,sp,-400
    13e4:	0b105463          	blez	a7,148c <win+0xc8>
    13e8:	000027b7          	lui	a5,0x2
    13ec:	ba478793          	addi	a5,a5,-1116 # 1ba4 <a>
    13f0:	00010593          	mv	a1,sp
    13f4:	00289513          	slli	a0,a7,0x2
    13f8:	00058713          	mv	a4,a1
    13fc:	00f50633          	add	a2,a0,a5
    1400:	0007a683          	lw	a3,0(a5)
    1404:	00470713          	addi	a4,a4,4
    1408:	00478793          	addi	a5,a5,4
    140c:	fed72e23          	sw	a3,-4(a4)
    1410:	fec798e3          	bne	a5,a2,1400 <win+0x3c>
    1414:	00410813          	addi	a6,sp,4
    1418:	00a585b3          	add	a1,a1,a0
    141c:	fff88313          	addi	t1,a7,-1
    1420:	00000513          	li	a0,0
    1424:	00080613          	mv	a2,a6
    1428:	02655a63          	ble	t1,a0,145c <win+0x98>
    142c:	00150513          	addi	a0,a0,1
    1430:	00060793          	mv	a5,a2
    1434:	03155063          	ble	a7,a0,1454 <win+0x90>
    1438:	0007a683          	lw	a3,0(a5)
    143c:	ffc62703          	lw	a4,-4(a2)
    1440:	00e6d663          	ble	a4,a3,144c <win+0x88>
    1444:	fed62e23          	sw	a3,-4(a2)
    1448:	00e7a023          	sw	a4,0(a5)
    144c:	00478793          	addi	a5,a5,4
    1450:	feb794e3          	bne	a5,a1,1438 <win+0x74>
    1454:	00460613          	addi	a2,a2,4
    1458:	fc654ae3          	blt	a0,t1,142c <win+0x68>
    145c:	03105e63          	blez	a7,1498 <win+0xd4>
    1460:	00012503          	lw	a0,0(sp)
    1464:	00100793          	li	a5,1
    1468:	00f51c63          	bne	a0,a5,1480 <win+0xbc>
    146c:	00f88c63          	beq	a7,a5,1484 <win+0xc0>
    1470:	00082703          	lw	a4,0(a6)
    1474:	00178793          	addi	a5,a5,1
    1478:	00480813          	addi	a6,a6,4
    147c:	fef708e3          	beq	a4,a5,146c <win+0xa8>
    1480:	00000513          	li	a0,0
    1484:	19010113          	addi	sp,sp,400
    1488:	00008067          	ret
    148c:	00010593          	mv	a1,sp
    1490:	00289513          	slli	a0,a7,0x2
    1494:	f81ff06f          	j	1414 <win+0x50>
    1498:	00100513          	li	a0,1
    149c:	fe9ff06f          	j	1484 <win+0xc0>

000014a0 <merge>:
    14a0:	000028b7          	lui	a7,0x2
    14a4:	b908a603          	lw	a2,-1136(a7) # 1b90 <now>
    14a8:	0ac05263          	blez	a2,154c <merge+0xac>
    14ac:	00002837          	lui	a6,0x2
    14b0:	ba480313          	addi	t1,a6,-1116 # 1ba4 <a>
    14b4:	ba480593          	addi	a1,a6,-1116
    14b8:	00000513          	li	a0,0
    14bc:	0005a783          	lw	a5,0(a1)
    14c0:	00150513          	addi	a0,a0,1
    14c4:	02078e63          	beqz	a5,1500 <merge+0x60>
    14c8:	00458593          	addi	a1,a1,4
    14cc:	fec518e3          	bne	a0,a2,14bc <merge+0x1c>
    14d0:	ba482783          	lw	a5,-1116(a6)
    14d4:	06078e63          	beqz	a5,1550 <merge+0xb0>
    14d8:	00002737          	lui	a4,0x2
    14dc:	ba870713          	addi	a4,a4,-1112 # 1ba8 <a+0x4>
    14e0:	00000793          	li	a5,0
    14e4:	00c0006f          	j	14f0 <merge+0x50>
    14e8:	ffc72683          	lw	a3,-4(a4)
    14ec:	06068263          	beqz	a3,1550 <merge+0xb0>
    14f0:	00178793          	addi	a5,a5,1
    14f4:	00470713          	addi	a4,a4,4
    14f8:	fec798e3          	bne	a5,a2,14e8 <merge+0x48>
    14fc:	00008067          	ret
    1500:	fcc554e3          	ble	a2,a0,14c8 <merge+0x28>
    1504:	0045a683          	lw	a3,4(a1)
    1508:	00858713          	addi	a4,a1,8
    150c:	00050793          	mv	a5,a0
    1510:	00068863          	beqz	a3,1520 <merge+0x80>
    1514:	0200006f          	j	1534 <merge+0x94>
    1518:	ffc72683          	lw	a3,-4(a4)
    151c:	00069c63          	bnez	a3,1534 <merge+0x94>
    1520:	00178793          	addi	a5,a5,1
    1524:	00470713          	addi	a4,a4,4
    1528:	fec798e3          	bne	a5,a2,1518 <merge+0x78>
    152c:	00458593          	addi	a1,a1,4
    1530:	f8dff06f          	j	14bc <merge+0x1c>
    1534:	00279793          	slli	a5,a5,0x2
    1538:	00d5a023          	sw	a3,0(a1)
    153c:	00f307b3          	add	a5,t1,a5
    1540:	0007a023          	sw	zero,0(a5)
    1544:	00458593          	addi	a1,a1,4
    1548:	f75ff06f          	j	14bc <merge+0x1c>
    154c:	00008067          	ret
    1550:	b8f8a823          	sw	a5,-1136(a7)
    1554:	00008067          	ret

00001558 <move>:
    1558:	00002537          	lui	a0,0x2
    155c:	b9052583          	lw	a1,-1136(a0) # 1b90 <now>
    1560:	04b05063          	blez	a1,15a0 <move+0x48>
    1564:	000027b7          	lui	a5,0x2
    1568:	ba478613          	addi	a2,a5,-1116 # 1ba4 <a>
    156c:	00259813          	slli	a6,a1,0x2
    1570:	ba478793          	addi	a5,a5,-1116
    1574:	010606b3          	add	a3,a2,a6
    1578:	0007a703          	lw	a4,0(a5)
    157c:	00478793          	addi	a5,a5,4
    1580:	fff70713          	addi	a4,a4,-1
    1584:	fee7ae23          	sw	a4,-4(a5)
    1588:	fed798e3          	bne	a5,a3,1578 <move+0x20>
    158c:	01060633          	add	a2,a2,a6
    1590:	00158793          	addi	a5,a1,1
    1594:	00b62023          	sw	a1,0(a2)
    1598:	b8f52823          	sw	a5,-1136(a0)
    159c:	00008067          	ret
    15a0:	00002637          	lui	a2,0x2
    15a4:	ba460613          	addi	a2,a2,-1116 # 1ba4 <a>
    15a8:	00259813          	slli	a6,a1,0x2
    15ac:	01060633          	add	a2,a2,a6
    15b0:	00158793          	addi	a5,a1,1
    15b4:	00b62023          	sw	a1,0(a2)
    15b8:	b8f52823          	sw	a5,-1136(a0)
    15bc:	00008067          	ret

000015c0 <__mulsi3>:
    15c0:	00050613          	mv	a2,a0
    15c4:	00000513          	li	a0,0
    15c8:	0015f693          	andi	a3,a1,1
    15cc:	00068463          	beqz	a3,15d4 <__mulsi3+0x14>
    15d0:	00c50533          	add	a0,a0,a2
    15d4:	0015d593          	srli	a1,a1,0x1
    15d8:	00161613          	slli	a2,a2,0x1
    15dc:	fe0596e3          	bnez	a1,15c8 <__mulsi3+0x8>
    15e0:	00008067          	ret

000015e4 <__divsi3>:
    15e4:	06054063          	bltz	a0,1644 <__umodsi3+0x10>
    15e8:	0605c663          	bltz	a1,1654 <__umodsi3+0x20>

000015ec <__udivsi3>:
    15ec:	00058613          	mv	a2,a1
    15f0:	00050593          	mv	a1,a0
    15f4:	fff00513          	li	a0,-1
    15f8:	02060c63          	beqz	a2,1630 <__udivsi3+0x44>
    15fc:	00100693          	li	a3,1
    1600:	00b67a63          	bleu	a1,a2,1614 <__udivsi3+0x28>
    1604:	00c05863          	blez	a2,1614 <__udivsi3+0x28>
    1608:	00161613          	slli	a2,a2,0x1
    160c:	00169693          	slli	a3,a3,0x1
    1610:	feb66ae3          	bltu	a2,a1,1604 <__udivsi3+0x18>
    1614:	00000513          	li	a0,0
    1618:	00c5e663          	bltu	a1,a2,1624 <__udivsi3+0x38>
    161c:	40c585b3          	sub	a1,a1,a2
    1620:	00d56533          	or	a0,a0,a3
    1624:	0016d693          	srli	a3,a3,0x1
    1628:	00165613          	srli	a2,a2,0x1
    162c:	fe0696e3          	bnez	a3,1618 <__udivsi3+0x2c>
    1630:	00008067          	ret

00001634 <__umodsi3>:
    1634:	00008293          	mv	t0,ra
    1638:	fb5ff0ef          	jal	ra,15ec <__udivsi3>
    163c:	00058513          	mv	a0,a1
    1640:	00028067          	jr	t0
    1644:	40a00533          	neg	a0,a0
    1648:	0005d863          	bgez	a1,1658 <__umodsi3+0x24>
    164c:	40b005b3          	neg	a1,a1
    1650:	f9dff06f          	j	15ec <__udivsi3>
    1654:	40b005b3          	neg	a1,a1
    1658:	00008293          	mv	t0,ra
    165c:	f91ff0ef          	jal	ra,15ec <__udivsi3>
    1660:	40a00533          	neg	a0,a0
    1664:	00028067          	jr	t0

00001668 <__modsi3>:
    1668:	00008293          	mv	t0,ra
    166c:	0005ca63          	bltz	a1,1680 <__modsi3+0x18>
    1670:	00054c63          	bltz	a0,1688 <__modsi3+0x20>
    1674:	f79ff0ef          	jal	ra,15ec <__udivsi3>
    1678:	00058513          	mv	a0,a1
    167c:	00028067          	jr	t0
    1680:	40b005b3          	neg	a1,a1
    1684:	fe0558e3          	bgez	a0,1674 <__modsi3+0xc>
    1688:	40a00533          	neg	a0,a0
    168c:	f61ff0ef          	jal	ra,15ec <__udivsi3>
    1690:	40b00533          	neg	a0,a1
    1694:	00028067          	jr	t0

Disassembly of section .text.startup:

00001698 <main>:
    1698:	fa010113          	addi	sp,sp,-96
    169c:	05212823          	sw	s2,80(sp)
    16a0:	05412423          	sw	s4,72(sp)
    16a4:	00002937          	lui	s2,0x2
    16a8:	00002a37          	lui	s4,0x2
    16ac:	04812c23          	sw	s0,88(sp)
    16b0:	04912a23          	sw	s1,84(sp)
    16b4:	b8892403          	lw	s0,-1144(s2) # 1b88 <M>
    16b8:	b8ca2483          	lw	s1,-1140(s4) # 1b8c <A>
    16bc:	0d200793          	li	a5,210
    16c0:	00002737          	lui	a4,0x2
    16c4:	b8f72a23          	sw	a5,-1132(a4) # 1b94 <n>
    16c8:	00048593          	mv	a1,s1
    16cc:	00040513          	mv	a0,s0
    16d0:	04112e23          	sw	ra,92(sp)
    16d4:	05312623          	sw	s3,76(sp)
    16d8:	05512223          	sw	s5,68(sp)
    16dc:	05612023          	sw	s6,64(sp)
    16e0:	03712e23          	sw	s7,60(sp)
    16e4:	03812c23          	sw	s8,56(sp)
    16e8:	03912a23          	sw	s9,52(sp)
    16ec:	03a12823          	sw	s10,48(sp)
    16f0:	03b12623          	sw	s11,44(sp)
    16f4:	00002b37          	lui	s6,0x2
    16f8:	eedff0ef          	jal	ra,15e4 <__divsi3>
    16fc:	b8ab2c23          	sw	a0,-1128(s6) # 1b98 <Q>
    1700:	00048593          	mv	a1,s1
    1704:	00040513          	mv	a0,s0
    1708:	f61ff0ef          	jal	ra,1668 <__modsi3>
    170c:	000029b7          	lui	s3,0x2
    1710:	00002cb7          	lui	s9,0x2
    1714:	00100793          	li	a5,1
    1718:	b8a9ae23          	sw	a0,-1124(s3) # 1b9c <R>
    171c:	bafca023          	sw	a5,-1120(s9) # 1ba0 <h>
    1720:	00000b93          	li	s7,0
    1724:	00100413          	li	s0,1
    1728:	00100a93          	li	s5,1
    172c:	0d300c13          	li	s8,211
    1730:	00140493          	addi	s1,s0,1
    1734:	00040593          	mv	a1,s0
    1738:	00048513          	mv	a0,s1
    173c:	e85ff0ef          	jal	ra,15c0 <__mulsi3>
    1740:	e5c50513          	addi	a0,a0,-420
    1744:	06aafe63          	bleu	a0,s5,17c0 <main+0x128>
    1748:	00048413          	mv	s0,s1
    174c:	00100b93          	li	s7,1
    1750:	ff8490e3          	bne	s1,s8,1730 <main+0x98>
    1754:	000027b7          	lui	a5,0x2
    1758:	ba9ca023          	sw	s1,-1120(s9)
    175c:	b0878793          	addi	a5,a5,-1272 # 1b08 <main+0x470>
    1760:	05300713          	li	a4,83
    1764:	000306b7          	lui	a3,0x30
    1768:	00e68023          	sb	a4,0(a3) # 30000 <__heap_start+0x2e000>
    176c:	00178793          	addi	a5,a5,1
    1770:	0007c703          	lbu	a4,0(a5)
    1774:	fe071ae3          	bnez	a4,1768 <main+0xd0>
    1778:	00a00793          	li	a5,10
    177c:	00f68023          	sb	a5,0(a3)
    1780:	00100513          	li	a0,1
    1784:	05c12083          	lw	ra,92(sp)
    1788:	05812403          	lw	s0,88(sp)
    178c:	05412483          	lw	s1,84(sp)
    1790:	05012903          	lw	s2,80(sp)
    1794:	04c12983          	lw	s3,76(sp)
    1798:	04812a03          	lw	s4,72(sp)
    179c:	04412a83          	lw	s5,68(sp)
    17a0:	04012b03          	lw	s6,64(sp)
    17a4:	03c12b83          	lw	s7,60(sp)
    17a8:	03812c03          	lw	s8,56(sp)
    17ac:	03412c83          	lw	s9,52(sp)
    17b0:	03012d03          	lw	s10,48(sp)
    17b4:	02c12d83          	lw	s11,44(sp)
    17b8:	06010113          	addi	sp,sp,96
    17bc:	00008067          	ret
    17c0:	000b8463          	beqz	s7,17c8 <main+0x130>
    17c4:	ba8ca023          	sw	s0,-1120(s9)
    17c8:	000027b7          	lui	a5,0x2
    17cc:	b5878793          	addi	a5,a5,-1192 # 1b58 <main+0x4c0>
    17d0:	04c00713          	li	a4,76
    17d4:	000306b7          	lui	a3,0x30
    17d8:	00e68023          	sb	a4,0(a3) # 30000 <__heap_start+0x2e000>
    17dc:	00178793          	addi	a5,a5,1
    17e0:	0007c703          	lbu	a4,0(a5)
    17e4:	fe071ae3          	bnez	a4,17d8 <main+0x140>
    17e8:	00a00793          	li	a5,10
    17ec:	00f68023          	sb	a5,0(a3)
    17f0:	b98b2a83          	lw	s5,-1128(s6)
    17f4:	0037c437          	lui	s0,0x37c
    17f8:	4f240413          	addi	s0,s0,1266 # 37c4f2 <__heap_start+0x37a4f2>
    17fc:	00002bb7          	lui	s7,0x2
    1800:	000a8593          	mv	a1,s5
    1804:	b88ba223          	sw	s0,-1148(s7) # 1b84 <__bss_start>
    1808:	00040513          	mv	a0,s0
    180c:	e5dff0ef          	jal	ra,1668 <__modsi3>
    1810:	b8ca2583          	lw	a1,-1140(s4)
    1814:	dadff0ef          	jal	ra,15c0 <__mulsi3>
    1818:	00050493          	mv	s1,a0
    181c:	000a8593          	mv	a1,s5
    1820:	00040513          	mv	a0,s0
    1824:	dc1ff0ef          	jal	ra,15e4 <__divsi3>
    1828:	b9c9a583          	lw	a1,-1124(s3)
    182c:	d95ff0ef          	jal	ra,15c0 <__mulsi3>
    1830:	40a48533          	sub	a0,s1,a0
    1834:	2a054a63          	bltz	a0,1ae8 <main+0x450>
    1838:	b8aba223          	sw	a0,-1148(s7)
    183c:	000024b7          	lui	s1,0x2
    1840:	b844a503          	lw	a0,-1148(s1) # 1b84 <__bss_start>
    1844:	00a00593          	li	a1,10
    1848:	00002c37          	lui	s8,0x2
    184c:	e1dff0ef          	jal	ra,1668 <__modsi3>
    1850:	00150793          	addi	a5,a0,1
    1854:	00078513          	mv	a0,a5
    1858:	b8fc2823          	sw	a5,-1136(s8) # 1b90 <now>
    185c:	fa4ff0ef          	jal	ra,1000 <outl>
    1860:	000307b7          	lui	a5,0x30
    1864:	00a00713          	li	a4,10
    1868:	00e78023          	sb	a4,0(a5) # 30000 <__heap_start+0x2e000>
    186c:	b90c2703          	lw	a4,-1136(s8)
    1870:	00002ab7          	lui	s5,0x2
    1874:	fff70793          	addi	a5,a4,-1
    1878:	00f12623          	sw	a5,12(sp)
    187c:	28f05063          	blez	a5,1afc <main+0x464>
    1880:	000027b7          	lui	a5,0x2
    1884:	ba4a8b93          	addi	s7,s5,-1116 # 1ba4 <a>
    1888:	b98b2403          	lw	s0,-1128(s6)
    188c:	b8ca2a03          	lw	s4,-1140(s4)
    1890:	b8892b03          	lw	s6,-1144(s2)
    1894:	b9c9a983          	lw	s3,-1124(s3)
    1898:	b947a903          	lw	s2,-1132(a5) # 1b94 <n>
    189c:	ffcb8c93          	addi	s9,s7,-4
    18a0:	00271713          	slli	a4,a4,0x2
    18a4:	b844ad83          	lw	s11,-1148(s1)
    18a8:	ba4a8a93          	addi	s5,s5,-1116
    18ac:	00ec8cb3          	add	s9,s9,a4
    18b0:	00000493          	li	s1,0
    18b4:	000d8513          	mv	a0,s11
    18b8:	00040593          	mv	a1,s0
    18bc:	dadff0ef          	jal	ra,1668 <__modsi3>
    18c0:	000a0593          	mv	a1,s4
    18c4:	cfdff0ef          	jal	ra,15c0 <__mulsi3>
    18c8:	00050d13          	mv	s10,a0
    18cc:	00040593          	mv	a1,s0
    18d0:	000d8513          	mv	a0,s11
    18d4:	d11ff0ef          	jal	ra,15e4 <__divsi3>
    18d8:	00098593          	mv	a1,s3
    18dc:	ce5ff0ef          	jal	ra,15c0 <__mulsi3>
    18e0:	40ad0db3          	sub	s11,s10,a0
    18e4:	000dd463          	bgez	s11,18ec <main+0x254>
    18e8:	016d8db3          	add	s11,s11,s6
    18ec:	00a00593          	li	a1,10
    18f0:	000d8513          	mv	a0,s11
    18f4:	d75ff0ef          	jal	ra,1668 <__modsi3>
    18f8:	00150513          	addi	a0,a0,1
    18fc:	00aaa023          	sw	a0,0(s5)
    1900:	00950533          	add	a0,a0,s1
    1904:	1ca95e63          	ble	a0,s2,1ae0 <main+0x448>
    1908:	000d8513          	mv	a0,s11
    190c:	00040593          	mv	a1,s0
    1910:	d59ff0ef          	jal	ra,1668 <__modsi3>
    1914:	000a0593          	mv	a1,s4
    1918:	ca9ff0ef          	jal	ra,15c0 <__mulsi3>
    191c:	00050d13          	mv	s10,a0
    1920:	00040593          	mv	a1,s0
    1924:	000d8513          	mv	a0,s11
    1928:	cbdff0ef          	jal	ra,15e4 <__divsi3>
    192c:	00098593          	mv	a1,s3
    1930:	c91ff0ef          	jal	ra,15c0 <__mulsi3>
    1934:	40ad0db3          	sub	s11,s10,a0
    1938:	00a00593          	li	a1,10
    193c:	000dd463          	bgez	s11,1944 <main+0x2ac>
    1940:	016d8db3          	add	s11,s11,s6
    1944:	000d8513          	mv	a0,s11
    1948:	d21ff0ef          	jal	ra,1668 <__modsi3>
    194c:	00150513          	addi	a0,a0,1
    1950:	00950733          	add	a4,a0,s1
    1954:	fae94ae3          	blt	s2,a4,1908 <main+0x270>
    1958:	00aaa023          	sw	a0,0(s5)
    195c:	00070493          	mv	s1,a4
    1960:	004a8a93          	addi	s5,s5,4
    1964:	f55c98e3          	bne	s9,s5,18b4 <main+0x21c>
    1968:	000027b7          	lui	a5,0x2
    196c:	b9b7a223          	sw	s11,-1148(a5) # 1b84 <__bss_start>
    1970:	000027b7          	lui	a5,0x2
    1974:	b947a703          	lw	a4,-1132(a5) # 1b94 <n>
    1978:	00c12783          	lw	a5,12(sp)
    197c:	00000a93          	li	s5,0
    1980:	409704b3          	sub	s1,a4,s1
    1984:	00279793          	slli	a5,a5,0x2
    1988:	017787b3          	add	a5,a5,s7
    198c:	0097a023          	sw	s1,0(a5)
    1990:	8e9ff0ef          	jal	ra,1278 <show>
    1994:	b0dff0ef          	jal	ra,14a0 <merge>
    1998:	a2dff0ef          	jal	ra,13c4 <win>
    199c:	00002d37          	lui	s10,0x2
    19a0:	000309b7          	lui	s3,0x30
    19a4:	01410913          	addi	s2,sp,20
    19a8:	00900a13          	li	s4,9
    19ac:	03a00c93          	li	s9,58
    19b0:	00050413          	mv	s0,a0
    19b4:	0c051a63          	bnez	a0,1a88 <main+0x3f0>
    19b8:	b68d0713          	addi	a4,s10,-1176 # 1b68 <main+0x4d0>
    19bc:	07300793          	li	a5,115
    19c0:	00f98023          	sb	a5,0(s3) # 30000 <__heap_start+0x2e000>
    19c4:	00170713          	addi	a4,a4,1
    19c8:	00074783          	lbu	a5,0(a4)
    19cc:	fe079ae3          	bnez	a5,19c0 <main+0x328>
    19d0:	001a8a93          	addi	s5,s5,1
    19d4:	000a8d93          	mv	s11,s5
    19d8:	00c0006f          	j	19e4 <main+0x34c>
    19dc:	000b0413          	mv	s0,s6
    19e0:	00050d93          	mv	s11,a0
    19e4:	00a00593          	li	a1,10
    19e8:	000d8513          	mv	a0,s11
    19ec:	c7dff0ef          	jal	ra,1668 <__modsi3>
    19f0:	03050513          	addi	a0,a0,48
    19f4:	00140b13          	addi	s6,s0,1
    19f8:	0ff57493          	andi	s1,a0,255
    19fc:	01690733          	add	a4,s2,s6
    1a00:	000d8513          	mv	a0,s11
    1a04:	00a00593          	li	a1,10
    1a08:	fe970fa3          	sb	s1,-1(a4)
    1a0c:	bd9ff0ef          	jal	ra,15e4 <__divsi3>
    1a10:	fdba46e3          	blt	s4,s11,19dc <main+0x344>
    1a14:	00890433          	add	s0,s2,s0
    1a18:	00c0006f          	j	1a24 <main+0x38c>
    1a1c:	fff44483          	lbu	s1,-1(s0)
    1a20:	00078413          	mv	s0,a5
    1a24:	00998023          	sb	s1,0(s3)
    1a28:	fff40793          	addi	a5,s0,-1
    1a2c:	fe8918e3          	bne	s2,s0,1a1c <main+0x384>
    1a30:	01998023          	sb	s9,0(s3)
    1a34:	00a00793          	li	a5,10
    1a38:	00f98023          	sb	a5,0(s3)
    1a3c:	b90c2603          	lw	a2,-1136(s8)
    1a40:	000b8793          	mv	a5,s7
    1a44:	00261593          	slli	a1,a2,0x2
    1a48:	017586b3          	add	a3,a1,s7
    1a4c:	00c05c63          	blez	a2,1a64 <main+0x3cc>
    1a50:	0007a703          	lw	a4,0(a5)
    1a54:	00478793          	addi	a5,a5,4
    1a58:	fff70713          	addi	a4,a4,-1
    1a5c:	fee7ae23          	sw	a4,-4(a5)
    1a60:	fef698e3          	bne	a3,a5,1a50 <main+0x3b8>
    1a64:	017585b3          	add	a1,a1,s7
    1a68:	00160793          	addi	a5,a2,1
    1a6c:	00c5a023          	sw	a2,0(a1)
    1a70:	b8fc2823          	sw	a5,-1136(s8)
    1a74:	a2dff0ef          	jal	ra,14a0 <merge>
    1a78:	801ff0ef          	jal	ra,1278 <show>
    1a7c:	949ff0ef          	jal	ra,13c4 <win>
    1a80:	00050413          	mv	s0,a0
    1a84:	f2050ae3          	beqz	a0,19b8 <main+0x320>
    1a88:	000027b7          	lui	a5,0x2
    1a8c:	b7078793          	addi	a5,a5,-1168 # 1b70 <main+0x4d8>
    1a90:	05400713          	li	a4,84
    1a94:	000306b7          	lui	a3,0x30
    1a98:	00e68023          	sb	a4,0(a3) # 30000 <__heap_start+0x2e000>
    1a9c:	00178793          	addi	a5,a5,1
    1aa0:	0007c703          	lbu	a4,0(a5)
    1aa4:	fe071ae3          	bnez	a4,1a98 <main+0x400>
    1aa8:	000a8513          	mv	a0,s5
    1aac:	d54ff0ef          	jal	ra,1000 <outl>
    1ab0:	000027b7          	lui	a5,0x2
    1ab4:	b7878793          	addi	a5,a5,-1160 # 1b78 <main+0x4e0>
    1ab8:	02000713          	li	a4,32
    1abc:	000306b7          	lui	a3,0x30
    1ac0:	00e68023          	sb	a4,0(a3) # 30000 <__heap_start+0x2e000>
    1ac4:	00178793          	addi	a5,a5,1
    1ac8:	0007c703          	lbu	a4,0(a5)
    1acc:	fe071ae3          	bnez	a4,1ac0 <main+0x428>
    1ad0:	00a00793          	li	a5,10
    1ad4:	00f68023          	sb	a5,0(a3)
    1ad8:	00000513          	li	a0,0
    1adc:	ca9ff06f          	j	1784 <main+0xec>
    1ae0:	00050493          	mv	s1,a0
    1ae4:	e7dff06f          	j	1960 <main+0x2c8>
    1ae8:	b8892783          	lw	a5,-1144(s2)
    1aec:	00002737          	lui	a4,0x2
    1af0:	00a787b3          	add	a5,a5,a0
    1af4:	b8f72223          	sw	a5,-1148(a4) # 1b84 <__bss_start>
    1af8:	d45ff06f          	j	183c <main+0x1a4>
    1afc:	00000493          	li	s1,0
    1b00:	ba4a8b93          	addi	s7,s5,-1116
    1b04:	e6dff06f          	j	1970 <main+0x2d8>
